; Function Attrs: nounwind uwtable
define hidden void @zim_SplObjectStorage_detach(ptr noundef %0, ptr nocapture readnone %1) #0 {
  %3 = getelementptr inbounds i8, ptr %0, i64 32
  %4 = load ptr, ptr %3, align 8
  %5 = getelementptr inbounds i8, ptr %4, i64 -88
  %6 = getelementptr inbounds i8, ptr %0, i64 44
  %7 = load i32, ptr %6, align 4
  %cond = icmp eq i32 %7, 1
  br i1 %cond, label %8, label %.thread

.thread:                                          ; preds = %2
  tail call void @zend_wrong_parameters_count_error(i32 noundef 1, i32 noundef 1) #10
  br label %12

8:                                                ; preds = %2
  %9 = getelementptr inbounds i8, ptr %0, i64 80
  %10 = getelementptr inbounds i8, ptr %0, i64 88
  %11 = load i8, ptr %10, align 8
  %.not57 = icmp eq i8 %11, 8
  br i1 %.not57, label %13, label %12

12:                                               ; preds = %8, %.thread
  %.070 = phi i32 [ 1, %.thread ], [ 9, %8 ]
  %.05169 = phi i32 [ 0, %.thread ], [ 1, %8 ]
  %.05268 = phi i32 [ 0, %.thread ], [ 18, %8 ]
  %.05367 = phi ptr [ null, %.thread ], [ %9, %8 ]
  tail call void @zend_wrong_parameter_error(i32 noundef %.070, i32 noundef %.05169, ptr noundef null, i32 noundef %.05268, ptr noundef %.05367) #10
  br label %18

13:                                               ; preds = %8
  %14 = load ptr, ptr %9, align 8
  %15 = tail call fastcc i32 @spl_object_storage_detach(ptr noundef nonnull %5, ptr noundef %14)
  %16 = getelementptr inbounds i8, ptr %4, i64 -24
  tail call void @zend_hash_internal_pointer_reset_ex(ptr noundef nonnull %5, ptr noundef nonnull %16) #10
  %17 = getelementptr inbounds i8, ptr %4, i64 -32
  store i64 0, ptr %17, align 8
  br label %18

18:                                               ; preds = %13, %12
  ret void
}